; Function Attrs: mustprogress uwtable
define hidden void @_ZN5zxing9BitMatrix6copyOfENS_3RefIS0_EERNS_12ErrorHandlerE(ptr noundef nonnull align 8 dereferenceable(346) %0, ptr nocapture noundef readonly %1, ptr noundef nonnull align 8 dereferenceable(48) %2) local_unnamed_addr #0 align 2 {
  %4 = load ptr, ptr %1, align 8
  %5 = getelementptr inbounds i8, ptr %4, i64 12
  %6 = load i32, ptr %5, align 4
  %7 = getelementptr inbounds i8, ptr %4, i64 16
  %8 = load i32, ptr %7, align 8
  tail call void @_ZN5zxing9BitMatrix4initEiiRNS_12ErrorHandlerE(ptr noundef nonnull align 8 dereferenceable(346) %0, i32 noundef %6, i32 noundef %8, ptr noundef nonnull align 8 dereferenceable(48) %2)
  %9 = getelementptr inbounds i8, ptr %0, i64 16
  %10 = load i32, ptr %9, align 8
  %11 = icmp sgt i32 %10, 0
  br i1 %11, label %.lr.ph, label %._crit_edge

.lr.ph:                                           ; preds = %3
  %12 = getelementptr inbounds i8, ptr %0, i64 336
  %13 = getelementptr inbounds i8, ptr %0, i64 312
  %14 = getelementptr inbounds i8, ptr %0, i64 20
  br label %15

15:                                               ; preds = %.lr.ph, %15
  %indvars.iv = phi i64 [ 0, %.lr.ph ], [ %indvars.iv.next, %15 ]
  %16 = load ptr, ptr %1, align 8
  %17 = getelementptr inbounds i8, ptr %16, i64 20
  %18 = load i32, ptr %17, align 4
  %19 = trunc nuw nsw i64 %indvars.iv to i32
  %20 = mul nsw i32 %18, %19
  %21 = getelementptr inbounds i8, ptr %16, i64 312
  %22 = load ptr, ptr %21, align 8
  %23 = getelementptr inbounds i8, ptr %22, i64 16
  %24 = load ptr, ptr %23, align 8
  %25 = sext i32 %20 to i64
  %26 = getelementptr inbounds i8, ptr %24, i64 %25
  %27 = load ptr, ptr %12, align 8
  %28 = getelementptr inbounds i8, ptr %27, i64 16
  %29 = load ptr, ptr %28, align 8
  %30 = getelementptr inbounds i32, ptr %29, i64 %indvars.iv
  %31 = load i32, ptr %30, align 4
  %32 = load ptr, ptr %13, align 8
  %33 = getelementptr inbounds i8, ptr %32, i64 16
  %34 = load ptr, ptr %33, align 8
  %35 = sext i32 %31 to i64
  %36 = getelementptr inbounds i8, ptr %34, i64 %35
  %37 = load i32, ptr %14, align 4
  %38 = sext i32 %37 to i64
  tail call void @llvm.memcpy.p0.p0.i64(ptr align 1 %36, ptr readonly align 1 %26, i64 %38, i1 false)
  %indvars.iv.next = add nuw nsw i64 %indvars.iv, 1
  %39 = load i32, ptr %9, align 8
  %40 = sext i32 %39 to i64
  %41 = icmp slt i64 %indvars.iv.next, %40
  br i1 %41, label %15, label %._crit_edge, !llvm.loop !6

._crit_edge:                                      ; preds = %15, %3
  ret void
}